ccopy_reg
_reconstructor
p0
(cgoogle.oauth2.credentials
Credentials
p1
c__builtin__
object
p2
Ntp3
Rp4
(dp5
S'_token_uri'
p6
Vhttps://oauth2.googleapis.com/token
p7
sS'_scopes'
p8
(lp9
S'https://www.googleapis.com/auth/drive.metadata.readonly'
p10
asS'_id_token'
p11
NsS'token'
p12
Vya29.Gl0BB6ANTl2TwkwDLUAfT_dRRDi4lKTXv8BqKPsTXnvXNfxnwtREPn_cQ7g1A3LnyEisuD9URYce-GyoMjr7ytWm5f9VAJ1GEYmtMImJkGj23Y1pWos4kJu49SEzyes
p13
sS'_refresh_token'
p14
V1/Z4_aue-ggAHyB0fQzd2RVYGdHBale7Z2-uAxa4WWXy8
p15
sS'_client_secret'
p16
VJUkR_9SqkahQW4MD1YM5jP8m
p17
sS'_client_id'
p18
V236603694769-gcus74s3124qgugnohgr2ennf3s89c6e.apps.googleusercontent.com
p19
sS'expiry'
p20
cdatetime
datetime
p21
(S'\x07\xe3\x05\x06\x10\x12\x06\x0e\x94\xa1'
p22
tp23
Rp24
sb.